target datalayout = "e-m:e-p270:32:32-p271:32:32-p272:64:64-i64:64-i128:128-f80:128-n8:16:32:64-S128"
target triple = "x86_64-pc-linux-gnu"

%struct.SYSCACHECALLBACK = type { i16, i16, ptr, i64 }
%struct.RELCACHECALLBACK = type { ptr, i64 }
%struct.RelFileLocatorBackend = type { %struct.RelFileLocator, i32 }
%struct.RelFileLocator = type { i32, i32, i32 }
%struct.SharedInvalCatcacheMsg = type { i8, i32, i32 }
%struct.SharedInvalCatalogMsg = type { i8, i32, i32 }
%struct.SharedInvalRelcacheMsg = type { i8, i32, i32 }
%struct.SharedInvalSmgrMsg = type { i8, i8, i16, %struct.RelFileLocator }
%struct.SharedInvalRelmapMsg = type { i8, i32 }
%struct.SharedInvalSnapshotMsg = type { i8, i32, i32 }

@syscache_callback_list = internal global [64 x %struct.SYSCACHECALLBACK] zeroinitializer, align 16
@relcache_callback_count = internal global i32 0, align 4
@relcache_callback_list = internal global [10 x %struct.RELCACHECALLBACK] zeroinitializer, align 16
@MyDatabaseId = external global i32, align 4
@.str = private unnamed_addr constant [31 x i8] c"unrecognized SI message ID: %d\00", align 1
@.str.1 = private unnamed_addr constant [8 x i8] c"inval.c\00", align 1
@__func__.LocalExecuteInvalidationMessage = private unnamed_addr constant [32 x i8] c"LocalExecuteInvalidationMessage\00", align 1
@.str.8 = private unnamed_addr constant [21 x i8] c"invalid cache ID: %d\00", align 1
@syscache_callback_links = internal global [85 x i16] zeroinitializer, align 16
@__func__.CallSyscacheCallbacks = private unnamed_addr constant [22 x i8] c"CallSyscacheCallbacks\00", align 1

; Function Attrs: nounwind uwtable
define dso_local void @CallSyscacheCallbacks(i32 noundef %0, i32 noundef %1) #0 {
  %3 = alloca i32, align 4
  %4 = alloca i32, align 4
  %5 = alloca i32, align 4
  %6 = alloca ptr, align 8
  store i32 %0, ptr %3, align 4
  store i32 %1, ptr %4, align 4
  call void @llvm.lifetime.start.p0(i64 4, ptr %5) #7
  %7 = load i32, ptr %3, align 4
  %8 = icmp slt i32 %7, 0
  br i1 %8, label %12, label %9

9:                                                ; preds = %2
  %10 = load i32, ptr %3, align 4
  %11 = icmp sge i32 %10, 85
  br i1 %11, label %12, label %24

12:                                               ; preds = %9, %2
  br label %13

13:                                               ; preds = %12
  br i1 true, label %14, label %16

14:                                               ; preds = %13
  %15 = call zeroext i1 @errstart_cold(i32 noundef 21, ptr noundef null) #8
  br i1 %15, label %18, label %21

16:                                               ; preds = %13
  %17 = call zeroext i1 @errstart(i32 noundef 21, ptr noundef null)
  br i1 %17, label %18, label %21

18:                                               ; preds = %16, %14
  %19 = load i32, ptr %3, align 4
  %20 = call i32 (ptr, ...) @errmsg_internal(ptr noundef @.str.8, i32 noundef %19)
  call void @errfinish(ptr noundef @.str.1, i32 noundef 1773, ptr noundef @__func__.CallSyscacheCallbacks)
  br label %21

21:                                               ; preds = %18, %16, %14
  unreachable

22:                                               ; No predecessors!
  br label %23

23:                                               ; preds = %22
  br label %24

24:                                               ; preds = %23, %9
  %25 = load i32, ptr %3, align 4
  %26 = sext i32 %25 to i64
  %27 = getelementptr inbounds [85 x i16], ptr @syscache_callback_links, i64 0, i64 %26
  %28 = load i16, ptr %27, align 2
  %29 = sext i16 %28 to i32
  %30 = sub i32 %29, 1
  store i32 %30, ptr %5, align 4
  br label %31

31:                                               ; preds = %34, %24
  %32 = load i32, ptr %5, align 4
  %33 = icmp sge i32 %32, 0
  br i1 %33, label %34, label %51

34:                                               ; preds = %31
  call void @llvm.lifetime.start.p0(i64 8, ptr %6) #7
  %35 = load i32, ptr %5, align 4
  %36 = sext i32 %35 to i64
  %37 = getelementptr inbounds %struct.SYSCACHECALLBACK, ptr @syscache_callback_list, i64 %36
  store ptr %37, ptr %6, align 8
  %38 = load ptr, ptr %6, align 8
  %39 = getelementptr inbounds nuw %struct.SYSCACHECALLBACK, ptr %38, i32 0, i32 2
  %40 = load ptr, ptr %39, align 8
  %41 = load ptr, ptr %6, align 8
  %42 = getelementptr inbounds nuw %struct.SYSCACHECALLBACK, ptr %41, i32 0, i32 3
  %43 = load i64, ptr %42, align 8
  %44 = load i32, ptr %3, align 4
  %45 = load i32, ptr %4, align 4
  call void %40(i64 noundef %43, i32 noundef %44, i32 noundef %45)
  %46 = load ptr, ptr %6, align 8
  %47 = getelementptr inbounds nuw %struct.SYSCACHECALLBACK, ptr %46, i32 0, i32 1
  %48 = load i16, ptr %47, align 2
  %49 = sext i16 %48 to i32
  %50 = sub i32 %49, 1
  store i32 %50, ptr %5, align 4
  call void @llvm.lifetime.end.p0(i64 8, ptr %6) #7
  br label %31, !llvm.loop !10

51:                                               ; preds = %31
  call void @llvm.lifetime.end.p0(i64 4, ptr %5) #7
  ret void
}

; Function Attrs: nounwind uwtable
define dso_local void @LocalExecuteInvalidationMessage(ptr noundef %0) #0 {
  %2 = alloca ptr, align 8
  %3 = alloca i32, align 4
  %4 = alloca ptr, align 8
  %5 = alloca %struct.RelFileLocatorBackend, align 4
  store ptr %0, ptr %2, align 8
  %6 = load ptr, ptr %2, align 8
  %7 = load i8, ptr %6, align 4
  %8 = sext i8 %7 to i32
  %9 = icmp sge i32 %8, 0
  br i1 %9, label %10, label %37

10:                                               ; preds = %1
  %11 = load ptr, ptr %2, align 8
  %12 = getelementptr inbounds nuw %struct.SharedInvalCatcacheMsg, ptr %11, i32 0, i32 1
  %13 = load i32, ptr %12, align 4
  %14 = load i32, ptr @MyDatabaseId, align 4
  %15 = icmp eq i32 %13, %14
  br i1 %15, label %21, label %16

16:                                               ; preds = %10
  %17 = load ptr, ptr %2, align 8
  %18 = getelementptr inbounds nuw %struct.SharedInvalCatcacheMsg, ptr %17, i32 0, i32 1
  %19 = load i32, ptr %18, align 4
  %20 = icmp eq i32 %19, 0
  br i1 %20, label %21, label %36

21:                                               ; preds = %16, %10
  call void @InvalidateCatalogSnapshot()
  %22 = load ptr, ptr %2, align 8
  %23 = getelementptr inbounds nuw %struct.SharedInvalCatcacheMsg, ptr %22, i32 0, i32 0
  %24 = load i8, ptr %23, align 4
  %25 = sext i8 %24 to i32
  %26 = load ptr, ptr %2, align 8
  %27 = getelementptr inbounds nuw %struct.SharedInvalCatcacheMsg, ptr %26, i32 0, i32 2
  %28 = load i32, ptr %27, align 4
  call void @SysCacheInvalidate(i32 noundef %25, i32 noundef %28)
  %29 = load ptr, ptr %2, align 8
  %30 = getelementptr inbounds nuw %struct.SharedInvalCatcacheMsg, ptr %29, i32 0, i32 0
  %31 = load i8, ptr %30, align 4
  %32 = sext i8 %31 to i32
  %33 = load ptr, ptr %2, align 8
  %34 = getelementptr inbounds nuw %struct.SharedInvalCatcacheMsg, ptr %33, i32 0, i32 2
  %35 = load i32, ptr %34, align 4
  call void @CallSyscacheCallbacks(i32 noundef %32, i32 noundef %35)
  br label %36

36:                                               ; preds = %21, %16
  br label %189

37:                                               ; preds = %1
  %38 = load ptr, ptr %2, align 8
  %39 = load i8, ptr %38, align 4
  %40 = sext i8 %39 to i32
  %41 = icmp eq i32 %40, -1
  br i1 %41, label %42, label %58

42:                                               ; preds = %37
  %43 = load ptr, ptr %2, align 8
  %44 = getelementptr inbounds nuw %struct.SharedInvalCatalogMsg, ptr %43, i32 0, i32 1
  %45 = load i32, ptr %44, align 4
  %46 = load i32, ptr @MyDatabaseId, align 4
  %47 = icmp eq i32 %45, %46
  br i1 %47, label %53, label %48

48:                                               ; preds = %42
  %49 = load ptr, ptr %2, align 8
  %50 = getelementptr inbounds nuw %struct.SharedInvalCatalogMsg, ptr %49, i32 0, i32 1
  %51 = load i32, ptr %50, align 4
  %52 = icmp eq i32 %51, 0
  br i1 %52, label %53, label %57

53:                                               ; preds = %48, %42
  call void @InvalidateCatalogSnapshot()
  %54 = load ptr, ptr %2, align 8
  %55 = getelementptr inbounds nuw %struct.SharedInvalCatalogMsg, ptr %54, i32 0, i32 2
  %56 = load i32, ptr %55, align 4
  call void @CatalogCacheFlushCatalog(i32 noundef %56)
  br label %57

57:                                               ; preds = %53, %48
  br label %188

58:                                               ; preds = %37
  %59 = load ptr, ptr %2, align 8
  %60 = load i8, ptr %59, align 4
  %61 = sext i8 %60 to i32
  %62 = icmp eq i32 %61, -2
  br i1 %62, label %63, label %107

63:                                               ; preds = %58
  %64 = load ptr, ptr %2, align 8
  %65 = getelementptr inbounds nuw %struct.SharedInvalRelcacheMsg, ptr %64, i32 0, i32 1
  %66 = load i32, ptr %65, align 4
  %67 = load i32, ptr @MyDatabaseId, align 4
  %68 = icmp eq i32 %66, %67
  br i1 %68, label %74, label %69

69:                                               ; preds = %63
  %70 = load ptr, ptr %2, align 8
  %71 = getelementptr inbounds nuw %struct.SharedInvalRelcacheMsg, ptr %70, i32 0, i32 1
  %72 = load i32, ptr %71, align 4
  %73 = icmp eq i32 %72, 0
  br i1 %73, label %74, label %106

74:                                               ; preds = %69, %63
  call void @llvm.lifetime.start.p0(i64 4, ptr %3) #7
  %75 = load ptr, ptr %2, align 8
  %76 = getelementptr inbounds nuw %struct.SharedInvalRelcacheMsg, ptr %75, i32 0, i32 2
  %77 = load i32, ptr %76, align 4
  %78 = icmp eq i32 %77, 0
  br i1 %78, label %79, label %80

79:                                               ; preds = %74
  call void @RelationCacheInvalidate(i1 noundef zeroext false)
  br label %84

80:                                               ; preds = %74
  %81 = load ptr, ptr %2, align 8
  %82 = getelementptr inbounds nuw %struct.SharedInvalRelcacheMsg, ptr %81, i32 0, i32 2
  %83 = load i32, ptr %82, align 4
  call void @RelationCacheInvalidateEntry(i32 noundef %83)
  br label %84

84:                                               ; preds = %80, %79
  store i32 0, ptr %3, align 4
  br label %85

85:                                               ; preds = %102, %84
  %86 = load i32, ptr %3, align 4
  %87 = load i32, ptr @relcache_callback_count, align 4
  %88 = icmp slt i32 %86, %87
  br i1 %88, label %89, label %105

89:                                               ; preds = %85
  call void @llvm.lifetime.start.p0(i64 8, ptr %4) #7
  %90 = load i32, ptr %3, align 4
  %91 = sext i32 %90 to i64
  %92 = getelementptr inbounds %struct.RELCACHECALLBACK, ptr @relcache_callback_list, i64 %91
  store ptr %92, ptr %4, align 8
  %93 = load ptr, ptr %4, align 8
  %94 = getelementptr inbounds nuw %struct.RELCACHECALLBACK, ptr %93, i32 0, i32 0
  %95 = load ptr, ptr %94, align 8
  %96 = load ptr, ptr %4, align 8
  %97 = getelementptr inbounds nuw %struct.RELCACHECALLBACK, ptr %96, i32 0, i32 1
  %98 = load i64, ptr %97, align 8
  %99 = load ptr, ptr %2, align 8
  %100 = getelementptr inbounds nuw %struct.SharedInvalRelcacheMsg, ptr %99, i32 0, i32 2
  %101 = load i32, ptr %100, align 4
  call void %95(i64 noundef %98, i32 noundef %101)
  call void @llvm.lifetime.end.p0(i64 8, ptr %4) #7
  br label %102

102:                                              ; preds = %89
  %103 = load i32, ptr %3, align 4
  %104 = add i32 %103, 1
  store i32 %104, ptr %3, align 4
  br label %85, !llvm.loop !9

105:                                              ; preds = %85
  call void @llvm.lifetime.end.p0(i64 4, ptr %3) #7
  br label %106

106:                                              ; preds = %105, %69
  br label %187

107:                                              ; preds = %58
  %108 = load ptr, ptr %2, align 8
  %109 = load i8, ptr %108, align 4
  %110 = sext i8 %109 to i32
  %111 = icmp eq i32 %110, -3
  br i1 %111, label %112, label %131

112:                                              ; preds = %107
  call void @llvm.lifetime.start.p0(i64 16, ptr %5) #7
  %113 = getelementptr inbounds nuw %struct.RelFileLocatorBackend, ptr %5, i32 0, i32 0
  %114 = load ptr, ptr %2, align 8
  %115 = getelementptr inbounds nuw %struct.SharedInvalSmgrMsg, ptr %114, i32 0, i32 3
  call void @llvm.memcpy.p0.p0.i64(ptr align 4 %113, ptr align 4 %115, i64 12, i1 false)
  %116 = load ptr, ptr %2, align 8
  %117 = getelementptr inbounds nuw %struct.SharedInvalSmgrMsg, ptr %116, i32 0, i32 1
  %118 = load i8, ptr %117, align 1
  %119 = sext i8 %118 to i32
  %120 = shl i32 %119, 16
  %121 = load ptr, ptr %2, align 8
  %122 = getelementptr inbounds nuw %struct.SharedInvalSmgrMsg, ptr %121, i32 0, i32 2
  %123 = load i16, ptr %122, align 2
  %124 = zext i16 %123 to i32
  %125 = or i32 %120, %124
  %126 = getelementptr inbounds nuw %struct.RelFileLocatorBackend, ptr %5, i32 0, i32 1
  store i32 %125, ptr %126, align 4
  %127 = getelementptr inbounds nuw { i64, i64 }, ptr %5, i32 0, i32 0
  %128 = load i64, ptr %127, align 4
  %129 = getelementptr inbounds nuw { i64, i64 }, ptr %5, i32 0, i32 1
  %130 = load i64, ptr %129, align 4
  call void @smgrreleaserellocator(i64 %128, i64 %130)
  call void @llvm.lifetime.end.p0(i64 16, ptr %5) #7
  br label %186

131:                                              ; preds = %107
  %132 = load ptr, ptr %2, align 8
  %133 = load i8, ptr %132, align 4
  %134 = sext i8 %133 to i32
  %135 = icmp eq i32 %134, -4
  br i1 %135, label %136, label %151

136:                                              ; preds = %131
  %137 = load ptr, ptr %2, align 8
  %138 = getelementptr inbounds nuw %struct.SharedInvalRelmapMsg, ptr %137, i32 0, i32 1
  %139 = load i32, ptr %138, align 4
  %140 = icmp eq i32 %139, 0
  br i1 %140, label %141, label %142

141:                                              ; preds = %136
  call void @RelationMapInvalidate(i1 noundef zeroext true)
  br label %150

142:                                              ; preds = %136
  %143 = load ptr, ptr %2, align 8
  %144 = getelementptr inbounds nuw %struct.SharedInvalRelmapMsg, ptr %143, i32 0, i32 1
  %145 = load i32, ptr %144, align 4
  %146 = load i32, ptr @MyDatabaseId, align 4
  %147 = icmp eq i32 %145, %146
  br i1 %147, label %148, label %149

148:                                              ; preds = %142
  call void @RelationMapInvalidate(i1 noundef zeroext false)
  br label %149

149:                                              ; preds = %148, %142
  br label %150

150:                                              ; preds = %149, %141
  br label %185

151:                                              ; preds = %131
  %152 = load ptr, ptr %2, align 8
  %153 = load i8, ptr %152, align 4
  %154 = sext i8 %153 to i32
  %155 = icmp eq i32 %154, -5
  br i1 %155, label %156, label %171

156:                                              ; preds = %151
  %157 = load ptr, ptr %2, align 8
  %158 = getelementptr inbounds nuw %struct.SharedInvalSnapshotMsg, ptr %157, i32 0, i32 1
  %159 = load i32, ptr %158, align 4
  %160 = icmp eq i32 %159, 0
  br i1 %160, label %161, label %162

161:                                              ; preds = %156
  call void @InvalidateCatalogSnapshot()
  br label %170

162:                                              ; preds = %156
  %163 = load ptr, ptr %2, align 8
  %164 = getelementptr inbounds nuw %struct.SharedInvalSnapshotMsg, ptr %163, i32 0, i32 1
  %165 = load i32, ptr %164, align 4
  %166 = load i32, ptr @MyDatabaseId, align 4
  %167 = icmp eq i32 %165, %166
  br i1 %167, label %168, label %169

168:                                              ; preds = %162
  call void @InvalidateCatalogSnapshot()
  br label %169

169:                                              ; preds = %168, %162
  br label %170

170:                                              ; preds = %169, %161
  br label %184

171:                                              ; preds = %151
  br label %172

172:                                              ; preds = %171
  br i1 true, label %173, label %175

173:                                              ; preds = %172
  %174 = call zeroext i1 @errstart_cold(i32 noundef 22, ptr noundef null) #8
  br i1 %174, label %177, label %182

175:                                              ; preds = %172
  %176 = call zeroext i1 @errstart(i32 noundef 22, ptr noundef null)
  br i1 %176, label %177, label %182

177:                                              ; preds = %175, %173
  %178 = load ptr, ptr %2, align 8
  %179 = load i8, ptr %178, align 4
  %180 = sext i8 %179 to i32
  %181 = call i32 (ptr, ...) @errmsg_internal(ptr noundef @.str, i32 noundef %180)
  call void @errfinish(ptr noundef @.str.1, i32 noundef 835, ptr noundef @__func__.LocalExecuteInvalidationMessage)
  br label %182

182:                                              ; preds = %177, %175, %173
  unreachable

183:                                              ; No predecessors!
  br label %184

184:                                              ; preds = %183, %170
  br label %185

185:                                              ; preds = %184, %150
  br label %186

186:                                              ; preds = %185, %112
  br label %187

187:                                              ; preds = %186, %106
  br label %188

188:                                              ; preds = %187, %57
  br label %189

189:                                              ; preds = %188, %36
  ret void
}