; Function Attrs: nounwind uwtable
define dso_local void @LocalExecuteInvalidationMessage(ptr noundef readonly captures(none) %0) #0 {
  %2 = load i8, ptr %0, align 4
  %3 = icmp sgt i8 %2, -1
  br i1 %3, label %4, label %33

4:                                                ; preds = %1
  %5 = getelementptr inbounds nuw i8, ptr %0, i64 4
  %6 = load i32, ptr %5, align 4
  %7 = load i32, ptr @MyDatabaseId, align 4
  %8 = icmp eq i32 %6, %7
  %9 = icmp eq i32 %6, 0
  %or.cond = or i1 %9, %8
  br i1 %or.cond, label %10, label %CallSyscacheCallbacks.exit

10:                                               ; preds = %4
  tail call void @InvalidateCatalogSnapshot() #7
  %11 = load i8, ptr %0, align 4
  %12 = sext i8 %11 to i32
  %13 = getelementptr inbounds nuw i8, ptr %0, i64 8
  %14 = load i32, ptr %13, align 4
  tail call void @SysCacheInvalidate(i32 noundef %12, i32 noundef %14) #7
  %15 = load i8, ptr %0, align 4
  %16 = sext i8 %15 to i32
  %17 = load i32, ptr %13, align 4
  %or.cond.i = icmp ugt i8 %15, 84
  br i1 %or.cond.i, label %18, label %21

18:                                               ; preds = %10
  %19 = tail call zeroext i1 @errstart_cold(i32 noundef 21, ptr noundef null) #8
  tail call void @llvm.assume(i1 %19)
  %20 = tail call i32 (ptr, ...) @errmsg_internal(ptr noundef nonnull @.str.8, i32 noundef %16) #7
  tail call void @errfinish(ptr noundef nonnull @.str.1, i32 noundef 1773, ptr noundef nonnull @__func__.CallSyscacheCallbacks) #7
  unreachable

21:                                               ; preds = %10
  %22 = zext nneg i32 %16 to i64
  %23 = getelementptr inbounds nuw [85 x i16], ptr @syscache_callback_links, i64 0, i64 %22
  %.0.in.in12.i = load i16, ptr %23, align 2
  %24 = icmp sgt i16 %.0.in.in12.i, 0
  br i1 %24, label %.lr.ph.i, label %CallSyscacheCallbacks.exit

.lr.ph.i:                                         ; preds = %21, %.lr.ph.i
  %.0.in.in13.i = phi i16 [ %.0.in.in.i, %.lr.ph.i ], [ %.0.in.in12.i, %21 ]
  %.0.in.i = zext nneg i16 %.0.in.in13.i to i64
  %.0.i = add nuw nsw i64 %.0.in.i, 4294967295
  %25 = and i64 %.0.i, 4294967295
  %26 = getelementptr inbounds nuw %struct.SYSCACHECALLBACK, ptr @syscache_callback_list, i64 %25
  %27 = getelementptr inbounds nuw i8, ptr %26, i64 8
  %28 = load ptr, ptr %27, align 8
  %29 = getelementptr inbounds nuw i8, ptr %26, i64 16
  %30 = load i64, ptr %29, align 8
  tail call void %28(i64 noundef %30, i32 noundef %16, i32 noundef %17) #7
  %31 = getelementptr inbounds nuw i8, ptr %26, i64 2
  %.0.in.in.i = load i16, ptr %31, align 2
  %32 = icmp sgt i16 %.0.in.in.i, 0
  br i1 %32, label %.lr.ph.i, label %CallSyscacheCallbacks.exit, !llvm.loop !7

33:                                               ; preds = %1
  switch i8 %2, label %93 [
    i8 -1, label %34
    i8 -2, label %43
    i8 -3, label %66
    i8 -4, label %75
    i8 -5, label %84
  ]

34:                                               ; preds = %33
  %35 = getelementptr inbounds nuw i8, ptr %0, i64 4
  %36 = load i32, ptr %35, align 4
  %37 = load i32, ptr @MyDatabaseId, align 4
  %38 = icmp eq i32 %36, %37
  %39 = icmp eq i32 %36, 0
  %or.cond39 = or i1 %39, %38
  br i1 %or.cond39, label %40, label %CallSyscacheCallbacks.exit

40:                                               ; preds = %34
  tail call void @InvalidateCatalogSnapshot() #7
  %41 = getelementptr inbounds nuw i8, ptr %0, i64 8
  %42 = load i32, ptr %41, align 4
  tail call void @CatalogCacheFlushCatalog(i32 noundef %42) #7
  br label %CallSyscacheCallbacks.exit

43:                                               ; preds = %33
  %44 = getelementptr inbounds nuw i8, ptr %0, i64 4
  %45 = load i32, ptr %44, align 4
  %46 = load i32, ptr @MyDatabaseId, align 4
  %47 = icmp eq i32 %45, %46
  %48 = icmp eq i32 %45, 0
  %or.cond40 = or i1 %48, %47
  br i1 %or.cond40, label %49, label %CallSyscacheCallbacks.exit

49:                                               ; preds = %43
  %50 = getelementptr inbounds nuw i8, ptr %0, i64 8
  %51 = load i32, ptr %50, align 4
  %52 = icmp eq i32 %51, 0
  br i1 %52, label %53, label %54

53:                                               ; preds = %49
  tail call void @RelationCacheInvalidate(i1 noundef zeroext false) #7
  br label %55

54:                                               ; preds = %49
  tail call void @RelationCacheInvalidateEntry(i32 noundef %51) #7
  br label %55

55:                                               ; preds = %54, %53
  %56 = load i32, ptr @relcache_callback_count, align 4
  %57 = icmp sgt i32 %56, 0
  br i1 %57, label %.lr.ph, label %CallSyscacheCallbacks.exit

.lr.ph:                                           ; preds = %55, %.lr.ph
  %indvars.iv = phi i64 [ %indvars.iv.next, %.lr.ph ], [ 0, %55 ]
  %58 = getelementptr inbounds nuw %struct.RELCACHECALLBACK, ptr @relcache_callback_list, i64 %indvars.iv
  %59 = load ptr, ptr %58, align 16
  %60 = getelementptr inbounds nuw i8, ptr %58, i64 8
  %61 = load i64, ptr %60, align 8
  %62 = load i32, ptr %50, align 4
  tail call void %59(i64 noundef %61, i32 noundef %62) #7
  %indvars.iv.next = add nuw nsw i64 %indvars.iv, 1
  %63 = load i32, ptr @relcache_callback_count, align 4
  %64 = sext i32 %63 to i64
  %65 = icmp slt i64 %indvars.iv.next, %64
  br i1 %65, label %.lr.ph, label %CallSyscacheCallbacks.exit, !llvm.loop !8

66:                                               ; preds = %33
  %67 = getelementptr inbounds nuw i8, ptr %0, i64 4
  %.sroa.0.0.copyload = load i64, ptr %67, align 4
  %.sroa.4.0..sroa_idx = getelementptr inbounds nuw i8, ptr %0, i64 12
  %.sroa.4.0.copyload = load i32, ptr %.sroa.4.0..sroa_idx, align 4
  %.sroa.4.0.insert.ext = zext i32 %.sroa.4.0.copyload to i64
  %68 = getelementptr inbounds nuw i8, ptr %0, i64 1
  %69 = load i8, ptr %68, align 1
  %70 = sext i8 %69 to i64
  %71 = shl nsw i64 %70, 16
  %72 = getelementptr inbounds nuw i8, ptr %0, i64 2
  %73 = load i16, ptr %72, align 2
  %74 = zext i16 %73 to i64
  %.masked = and i64 %71, 4294901760
  %.sroa.4.12.insert.ext = or disjoint i64 %.masked, %74
  %.sroa.4.12.insert.shift = shl nuw i64 %.sroa.4.12.insert.ext, 32
  %.sroa.4.12.insert.insert = or disjoint i64 %.sroa.4.12.insert.shift, %.sroa.4.0.insert.ext
  tail call void @smgrreleaserellocator(i64 %.sroa.0.0.copyload, i64 %.sroa.4.12.insert.insert) #7
  br label %CallSyscacheCallbacks.exit

75:                                               ; preds = %33
  %76 = getelementptr inbounds nuw i8, ptr %0, i64 4
  %77 = load i32, ptr %76, align 4
  %78 = icmp eq i32 %77, 0
  br i1 %78, label %79, label %80

79:                                               ; preds = %75
  tail call void @RelationMapInvalidate(i1 noundef zeroext true) #7
  br label %CallSyscacheCallbacks.exit

80:                                               ; preds = %75
  %81 = load i32, ptr @MyDatabaseId, align 4
  %82 = icmp eq i32 %77, %81
  br i1 %82, label %83, label %CallSyscacheCallbacks.exit

83:                                               ; preds = %80
  tail call void @RelationMapInvalidate(i1 noundef zeroext false) #7
  br label %CallSyscacheCallbacks.exit

84:                                               ; preds = %33
  %85 = getelementptr inbounds nuw i8, ptr %0, i64 4
  %86 = load i32, ptr %85, align 4
  %87 = icmp eq i32 %86, 0
  br i1 %87, label %88, label %89

88:                                               ; preds = %84
  tail call void @InvalidateCatalogSnapshot() #7
  br label %CallSyscacheCallbacks.exit

89:                                               ; preds = %84
  %90 = load i32, ptr @MyDatabaseId, align 4
  %91 = icmp eq i32 %86, %90
  br i1 %91, label %92, label %CallSyscacheCallbacks.exit

92:                                               ; preds = %89
  tail call void @InvalidateCatalogSnapshot() #7
  br label %CallSyscacheCallbacks.exit

93:                                               ; preds = %33
  %94 = tail call zeroext i1 @errstart_cold(i32 noundef 22, ptr noundef null) #8
  tail call void @llvm.assume(i1 %94)
  %95 = load i8, ptr %0, align 4
  %96 = sext i8 %95 to i32
  %97 = tail call i32 (ptr, ...) @errmsg_internal(ptr noundef nonnull @.str, i32 noundef %96) #7
  tail call void @errfinish(ptr noundef nonnull @.str.1, i32 noundef 835, ptr noundef nonnull @__func__.LocalExecuteInvalidationMessage) #7
  unreachable

CallSyscacheCallbacks.exit:                       ; preds = %.lr.ph, %.lr.ph.i, %55, %21, %43, %34, %4, %40, %66, %89, %92, %88, %79, %83, %80
  ret void
}